Certificate:
    Data:
        Version: 3 (0x2)
        Serial Number: 1 (0x1)
        Signature Algorithm: sha1WithRSAEncryption
        Issuer: C=BA, ST=RS, L=Banja Luka, O=Elektrotehnicki fakultet, OU=ETF, CN=Zana/emailAddress=zana@mail.com
        Validity
            Not Before: Jul 13 20:30:49 2024 GMT
            Not After : Jul 13 20:30:49 2025 GMT
        Subject: C=BA, ST=RS, O=Elektrotehnicki fakultet, OU=ETF, CN=User/emailAddress=User@mail.com
        Subject Public Key Info:
            Public Key Algorithm: rsaEncryption
                Public-Key: (2048 bit)
                Modulus:
                    00:a1:0f:43:1d:c5:39:6f:f3:7e:fa:4c:fb:e3:f3:
                    ec:f1:9d:49:66:11:2f:c1:7a:11:eb:12:17:72:63:
                    99:d2:72:15:c3:12:af:d1:f8:f6:f7:73:92:41:0e:
                    d3:09:b0:9e:7f:87:7d:b9:8d:71:fe:67:04:81:ce:
                    6d:2a:84:e4:48:f6:88:29:e0:70:c7:fa:14:b1:ca:
                    20:53:61:81:6a:1e:a8:ab:3e:db:c4:e4:8b:c1:2f:
                    89:e2:05:e5:4f:da:42:4f:9a:ee:82:13:f8:4b:7d:
                    b3:e4:77:f2:b0:6a:75:99:e7:60:23:b9:da:46:ea:
                    68:2d:b9:b5:96:03:51:6f:71:1f:8a:50:2d:28:9e:
                    0b:60:e8:ed:20:8f:21:48:fb:9a:dd:3a:2b:c5:e2:
                    5c:0b:25:44:33:a8:34:79:e0:8e:45:08:f0:46:d1:
                    4b:a2:ba:11:56:94:66:16:4d:1e:4e:ac:ba:ed:06:
                    31:76:e2:f5:31:d8:5f:22:c7:cd:84:57:10:37:59:
                    a1:12:f0:fc:22:14:99:4d:d9:4f:77:f7:5e:37:8e:
                    fc:76:ee:96:50:1f:6b:bd:bb:27:f6:7b:4f:77:36:
                    46:4d:52:a6:4c:10:eb:88:25:12:80:13:5f:f9:97:
                    05:74:90:70:b5:bb:a6:a8:81:53:94:2e:eb:bb:66:
                    2c:9b
                Exponent: 65537 (0x10001)
        X509v3 extensions:
            X509v3 Basic Constraints: 
                CA:FALSE
            X509v3 Key Usage: 
                Digital Signature
            X509v3 Extended Key Usage: 
                TLS Web Client Authentication
            Netscape Comment: 
                OpenSSL Generated Certificate
            X509v3 Subject Key Identifier: 
                A4:30:F6:4C:C3:F5:FB:71:1C:A3:8C:36:73:E4:AB:73:6A:4A:CF:44
            X509v3 Authority Key Identifier: 
                05:A5:F9:8F:0A:A9:48:14:5A:68:79:BD:C3:EF:0C:B7:7D:DF:E5:FE
            X509v3 CRL Distribution Points: 
                Full Name:
                  URI:http://192.168.21.89/rootcrl.pem
    Signature Algorithm: sha1WithRSAEncryption
    Signature Value:
        61:77:8b:1a:45:90:54:06:6b:51:5e:27:ce:95:d6:08:e3:b6:
        b4:7b:dc:e3:06:26:74:4e:c6:bc:02:f0:73:ac:df:ec:b5:90:
        5b:5b:05:87:b2:0b:f7:b6:ed:d3:f5:4e:c6:c2:81:4d:fc:33:
        c1:93:02:47:d6:4b:75:ab:77:4d:27:99:13:0c:de:ff:f3:6a:
        84:5d:3c:98:b9:d7:c2:fe:7f:7b:c3:08:7c:03:da:5d:50:9b:
        cd:46:4e:5a:47:3c:c9:bc:69:31:cb:0b:f7:a2:13:fc:cf:35:
        28:30:8f:48:94:f1:4a:cc:a9:31:91:3f:e2:85:ca:55:c1:c6:
        6b:87:68:20:9f:ac:da:a4:31:d2:e2:ce:83:ac:34:9b:73:9e:
        0d:c0:ab:12:45:1d:3a:f9:e0:e3:64:44:3d:9f:cc:f5:16:6e:
        a5:5c:82:03:77:3d:13:af:82:de:b2:35:29:5f:5a:8d:9d:93:
        9d:9b:bf:41:ae:f9:29:d6:35:af:d6:52:b1:07:87:bd:5b:dc:
        73:68:7c:ad:b6:e2:64:93:ff:56:b0:c0:35:ad:dd:05:10:09:
        25:2c:4f:94:f7:1d:7c:56:8d:41:3f:86:2c:ef:f0:f8:e3:50:
        10:7b:8f:ca:ed:ce:13:25:7b:d9:70:dd:a0:5f:b1:6b:40:99:
        8b:33:27:5c
-----BEGIN CERTIFICATE-----
MIIEUzCCAzugAwIBAgIBATANBgkqhkiG9w0BAQUFADCBjTELMAkGA1UEBhMCQkEx
CzAJBgNVBAgTAlJTMRMwEQYDVQQHEwpCYW5qYSBMdWthMSEwHwYDVQQKExhFbGVr
dHJvdGVobmlja2kgZmFrdWx0ZXQxDDAKBgNVBAsTA0VURjENMAsGA1UEAxMEWmFu
YTEcMBoGCSqGSIb3DQEJARYNemFuYUBtYWlsLmNvbTAeFw0yNDA3MTMyMDMwNDla
Fw0yNTA3MTMyMDMwNDlaMHgxCzAJBgNVBAYTAkJBMQswCQYDVQQIDAJSUzEhMB8G
A1UECgwYRWxla3Ryb3RlaG5pY2tpIGZha3VsdGV0MQwwCgYDVQQLDANFVEYxDTAL
BgNVBAMMBFVzZXIxHDAaBgkqhkiG9w0BCQEWDVVzZXJAbWFpbC5jb20wggEiMA0G
CSqGSIb3DQEBAQUAA4IBDwAwggEKAoIBAQChD0MdxTlv8376TPvj8+zxnUlmES/B
ehHrEhdyY5nSchXDEq/R+Pb3c5JBDtMJsJ5/h325jXH+ZwSBzm0qhORI9ogp4HDH
+hSxyiBTYYFqHqirPtvE5IvBL4niBeVP2kJPmu6CE/hLfbPkd/KwanWZ52AjudpG
6mgtubWWA1FvcR+KUC0ongtg6O0gjyFI+5rdOivF4lwLJUQzqDR54I5FCPBG0Uui
uhFWlGYWTR5OrLrtBjF24vUx2F8ix82EVxA3WaES8PwiFJlN2U939143jvx27pZQ
H2u9uyf2e093NkZNUqZMEOuIJRKAE1/5lwV0kHC1u6aogVOULuu7ZiybAgMBAAGj
gdEwgc4wCQYDVR0TBAIwADALBgNVHQ8EBAMCB4AwEwYDVR0lBAwwCgYIKwYBBQUH
AwIwLAYJYIZIAYb4QgENBB8WHU9wZW5TU0wgR2VuZXJhdGVkIENlcnRpZmljYXRl
MB0GA1UdDgQWBBSkMPZMw/X7cRyjjDZz5KtzakrPRDAfBgNVHSMEGDAWgBQFpfmP
CqlIFFpoeb3D7wy3fd/l/jAxBgNVHR8EKjAoMCagJKAihiBodHRwOi8vMTkyLjE2
OC4yMS44OS9yb290Y3JsLnBlbTANBgkqhkiG9w0BAQUFAAOCAQEAYXeLGkWQVAZr
UV4nzpXWCOO2tHvc4wYmdE7GvALwc6zf7LWQW1sFh7IL97bt0/VOxsKBTfwzwZMC
R9ZLdat3TSeZEwze//NqhF08mLnXwv5/e8MIfAPaXVCbzUZOWkc8ybxpMcsL96IT
/M81KDCPSJTxSsypMZE/4oXKVcHGa4doIJ+s2qQx0uLOg6w0m3OeDcCrEkUdOvng
42REPZ/M9RZupVyCA3c9E6+C3rI1KV9ajZ2TnZu/Qa75KdY1r9ZSsQeHvVvcc2h8
rbbiZJP/VrDANa3dBRAJJSxPlPcdfFaNQT+GLO/w+ONQEHuPyu3OEyV72XDdoF+x
a0CZizMnXA==
-----END CERTIFICATE-----
